target datalayout = "e-m:e-p270:32:32-p271:32:32-p272:64:64-i64:64-i128:128-f80:128-n8:16:32:64-S128"
target triple = "x86_64-pc-linux-gnu"

%struct.timespec = type { i64, i64 }
%struct.conmgr_callbacks_t = type { ptr, ptr }
%union.pthread_mutex_t = type { %struct.__pthread_mutex_s }
%struct.__pthread_mutex_s = type { i32, i32, i32, i32, i32, i16, i16, %struct.__pthread_internal_list }
%struct.__pthread_internal_list = type { ptr, ptr }
%struct.event_signal_t = type { ptr, %union.pthread_cond_t, i32, i32 }
%union.pthread_cond_t = type { %struct.__pthread_cond_s }
%struct.__pthread_cond_s = type { %union.__atomic_wide_counter, %union.__atomic_wide_counter, [2 x i32], [2 x i32], i32, i32, [2 x i32] }
%union.__atomic_wide_counter = type { i64 }
%struct.conmgr_t = type { i32, i32, %struct.timespec, %struct.timespec, %struct.timespec, i32, ptr, ptr, ptr, i8, i8, i64, %struct.timespec, i8, i8, i8, i8, i8, i32, ptr, ptr, %struct.conmgr_callbacks_t, %union.pthread_mutex_t, %struct.anon, %struct.anon.1, %struct.event_signal_t, %struct.event_signal_t, %struct.event_signal_t, %struct.event_signal_t }
%struct.anon = type { i32, ptr, i32, i32, i8, i32 }
%struct.anon.1 = type { i8, i8, %struct.event_signal_t, %struct.event_signal_t }

@.str.6 = private unnamed_addr constant [29 x i8] c"%s: pthread_mutex_lock(): %m\00", align 1
@.str.9 = private unnamed_addr constant [31 x i8] c"%s: pthread_mutex_unlock(): %m\00", align 1
@__func__.conmgr_get_error = private unnamed_addr constant [17 x i8] c"conmgr_get_error\00", align 1

; Function Attrs: nounwind uwtable
define dso_local i32 @conmgr_get_error() #0 {
  %1 = alloca i32, align 4
  %2 = alloca i32, align 4
  %3 = alloca i32, align 4
  call void @llvm.lifetime.start.p0(i64 4, ptr %1) #8
  br label %4

4:                                                ; preds = %0
  call void @llvm.lifetime.start.p0(i64 4, ptr %2) #8
  %5 = call i32 @pthread_mutex_lock(ptr noundef getelementptr inbounds nuw (%struct.conmgr_t, ptr @mgr, i32 0, i32 22)) #8
  store i32 %5, ptr %2, align 4
  %6 = load i32, ptr %2, align 4
  %7 = icmp ne i32 %6, 0
  br i1 %7, label %8, label %11

8:                                                ; preds = %4
  %9 = load i32, ptr %2, align 4
  %10 = call ptr @__errno_location() #9
  store i32 %9, ptr %10, align 4
  call void (ptr, ...) @fatal_abort(ptr noundef @.str.6, ptr noundef @__func__.conmgr_get_error) #10
  unreachable

11:                                               ; preds = %4
  call void @llvm.lifetime.end.p0(i64 4, ptr %2) #8
  br label %12

12:                                               ; preds = %11
  br label %13

13:                                               ; preds = %12
  %14 = load i32, ptr getelementptr inbounds nuw (%struct.conmgr_t, ptr @mgr, i32 0, i32 18), align 8
  store i32 %14, ptr %1, align 4
  br label %15

15:                                               ; preds = %13
  call void @llvm.lifetime.start.p0(i64 4, ptr %3) #8
  %16 = call i32 @pthread_mutex_unlock(ptr noundef getelementptr inbounds nuw (%struct.conmgr_t, ptr @mgr, i32 0, i32 22)) #8
  store i32 %16, ptr %3, align 4
  %17 = load i32, ptr %3, align 4
  %18 = icmp ne i32 %17, 0
  br i1 %18, label %19, label %22

19:                                               ; preds = %15
  %20 = load i32, ptr %3, align 4
  %21 = call ptr @__errno_location() #9
  store i32 %20, ptr %21, align 4
  call void (ptr, ...) @fatal_abort(ptr noundef @.str.9, ptr noundef @__func__.conmgr_get_error) #10
  unreachable

22:                                               ; preds = %15
  call void @llvm.lifetime.end.p0(i64 4, ptr %3) #8
  br label %23

23:                                               ; preds = %22
  br label %24

24:                                               ; preds = %23
  %25 = load i32, ptr %1, align 4
  call void @llvm.lifetime.end.p0(i64 4, ptr %1) #8
  ret i32 %25
}